target datalayout = "e-m:e-p270:32:32-p271:32:32-p272:64:64-i64:64-i128:128-f80:128-n8:16:32:64-S128"
target triple = "x86_64-pc-linux-gnu"

%"class.icu_77::UnicodeString" = type { %"class.icu_77::Replaceable", %"union.icu_77::UnicodeString::StackBufferOrFields" }
%"class.icu_77::Replaceable" = type { %"class.icu_77::UObject" }
%"class.icu_77::UObject" = type { ptr }
%"union.icu_77::UnicodeString::StackBufferOrFields" = type { %struct.anon.0, [32 x i8] }
%struct.anon.0 = type { i16, i32, i32, ptr }
%struct.anon = type { i16, [27 x i16] }

; Function Attrs: inlinehint mustprogress nounwind uwtable
define linkonce_odr noundef ptr @_ZNK6icu_7713UnicodeString13getArrayStartEv(ptr noundef nonnull align 8 dereferenceable(64) %0) #2 comdat align 2 {
  %2 = alloca ptr, align 8
  store ptr %0, ptr %2, align 8, !tbaa !60
  %3 = load ptr, ptr %2, align 8
  %4 = getelementptr inbounds nuw %"class.icu_77::UnicodeString", ptr %3, i32 0, i32 1
  %5 = getelementptr inbounds nuw %struct.anon.0, ptr %4, i32 0, i32 0
  %6 = load i16, ptr %5, align 8, !tbaa !62
  %7 = sext i16 %6 to i32
  %8 = and i32 %7, 2
  %9 = icmp ne i32 %8, 0
  br i1 %9, label %10, label %14

10:                                               ; preds = %1
  %11 = getelementptr inbounds nuw %"class.icu_77::UnicodeString", ptr %3, i32 0, i32 1
  %12 = getelementptr inbounds nuw %struct.anon, ptr %11, i32 0, i32 1
  %13 = getelementptr inbounds [27 x i16], ptr %12, i64 0, i64 0
  br label %18

14:                                               ; preds = %1
  %15 = getelementptr inbounds nuw %"class.icu_77::UnicodeString", ptr %3, i32 0, i32 1
  %16 = getelementptr inbounds nuw %struct.anon.0, ptr %15, i32 0, i32 3
  %17 = load ptr, ptr %16, align 8, !tbaa !62
  br label %18

18:                                               ; preds = %14, %10
  %19 = phi ptr [ %13, %10 ], [ %17, %14 ]
  ret ptr %19
}

; Function Attrs: inlinehint mustprogress uwtable
define linkonce_odr noundef zeroext i16 @_ZNK6icu_7713UnicodeString8doCharAtEi(ptr noundef nonnull align 8 dereferenceable(64) %0, i32 noundef %1) #3 comdat align 2 {
  %3 = alloca i16, align 2
  %4 = alloca ptr, align 8
  %5 = alloca i32, align 4
  store ptr %0, ptr %4, align 8, !tbaa !60
  store i32 %1, ptr %5, align 4, !tbaa !14
  %6 = load ptr, ptr %4, align 8
  %7 = load i32, ptr %5, align 4, !tbaa !14
  %8 = call noundef i32 @_ZNK6icu_7713UnicodeString6lengthEv(ptr noundef nonnull align 8 dereferenceable(64) %6)
  %9 = icmp ult i32 %7, %8
  br i1 %9, label %10, label %16

10:                                               ; preds = %2
  %11 = call noundef ptr @_ZNK6icu_7713UnicodeString13getArrayStartEv(ptr noundef nonnull align 8 dereferenceable(64) %6)
  %12 = load i32, ptr %5, align 4, !tbaa !14
  %13 = sext i32 %12 to i64
  %14 = getelementptr inbounds i16, ptr %11, i64 %13
  %15 = load i16, ptr %14, align 2, !tbaa !104
  store i16 %15, ptr %3, align 2
  br label %17

16:                                               ; preds = %2
  store i16 -1, ptr %3, align 2
  br label %17

17:                                               ; preds = %16, %10
  %18 = load i16, ptr %3, align 2
  ret i16 %18
}

; Function Attrs: inlinehint mustprogress nounwind uwtable
define linkonce_odr noundef i32 @_ZNK6icu_7713UnicodeString14getShortLengthEv(ptr noundef nonnull align 8 dereferenceable(64) %0) #2 comdat align 2 {
  %2 = alloca ptr, align 8
  store ptr %0, ptr %2, align 8, !tbaa !60
  %3 = load ptr, ptr %2, align 8
  %4 = getelementptr inbounds nuw %"class.icu_77::UnicodeString", ptr %3, i32 0, i32 1
  %5 = getelementptr inbounds nuw %struct.anon.0, ptr %4, i32 0, i32 0
  %6 = load i16, ptr %5, align 8, !tbaa !62
  %7 = sext i16 %6 to i32
  %8 = ashr i32 %7, 5
  ret i32 %8
}

; Function Attrs: inlinehint mustprogress nounwind uwtable
define linkonce_odr noundef signext i8 @_ZNK6icu_7713UnicodeString14hasShortLengthEv(ptr noundef nonnull align 8 dereferenceable(64) %0) #2 comdat align 2 {
  %2 = alloca ptr, align 8
  store ptr %0, ptr %2, align 8, !tbaa !60
  %3 = load ptr, ptr %2, align 8
  %4 = getelementptr inbounds nuw %"class.icu_77::UnicodeString", ptr %3, i32 0, i32 1
  %5 = getelementptr inbounds nuw %struct.anon.0, ptr %4, i32 0, i32 0
  %6 = load i16, ptr %5, align 8, !tbaa !62
  %7 = sext i16 %6 to i32
  %8 = icmp sge i32 %7, 0
  %9 = zext i1 %8 to i8
  ret i8 %9
}

; Function Attrs: inlinehint mustprogress uwtable
define linkonce_odr noundef zeroext i16 @_ZNK6icu_7713UnicodeStringixEi(ptr noundef nonnull align 8 dereferenceable(64) %0, i32 noundef %1) #3 comdat align 2 {
  %3 = alloca ptr, align 8
  %4 = alloca i32, align 4
  store ptr %0, ptr %3, align 8, !tbaa !60
  store i32 %1, ptr %4, align 4, !tbaa !14
  %5 = load ptr, ptr %3, align 8
  %6 = load i32, ptr %4, align 4, !tbaa !14
  %7 = call noundef zeroext i16 @_ZNK6icu_7713UnicodeString8doCharAtEi(ptr noundef nonnull align 8 dereferenceable(64) %5, i32 noundef %6)
  ret i16 %7
}

; Function Attrs: inlinehint mustprogress uwtable
define linkonce_odr noundef i32 @_ZNK6icu_7713UnicodeString6lengthEv(ptr noundef nonnull align 8 dereferenceable(64) %0) #3 comdat align 2 {
  %2 = alloca ptr, align 8
  store ptr %0, ptr %2, align 8, !tbaa !60
  %3 = load ptr, ptr %2, align 8
  %4 = call noundef signext i8 @_ZNK6icu_7713UnicodeString14hasShortLengthEv(ptr noundef nonnull align 8 dereferenceable(64) %3)
  %5 = icmp ne i8 %4, 0
  br i1 %5, label %6, label %8

6:                                                ; preds = %1
  %7 = call noundef i32 @_ZNK6icu_7713UnicodeString14getShortLengthEv(ptr noundef nonnull align 8 dereferenceable(64) %3)
  br label %12

8:                                                ; preds = %1
  %9 = getelementptr inbounds nuw %"class.icu_77::UnicodeString", ptr %3, i32 0, i32 1
  %10 = getelementptr inbounds nuw %struct.anon.0, ptr %9, i32 0, i32 1
  %11 = load i32, ptr %10, align 4, !tbaa !62
  br label %12

12:                                               ; preds = %8, %6
  %13 = phi i32 [ %7, %6 ], [ %11, %8 ]
  ret i32 %13
}

; Function Attrs: mustprogress uwtable
define internal noundef i32 @_ZN6icu_7712_GLOBAL__N_122AllowedHourFormatsSink30getHourFormatFromUnicodeStringERKNS_13UnicodeStringE(ptr noundef nonnull align 8 dereferenceable(8) %0, ptr noundef nonnull align 8 dereferenceable(64) %1) #1 align 2 {
  %3 = alloca i32, align 4
  %4 = alloca ptr, align 8
  %5 = alloca ptr, align 8
  store ptr %0, ptr %4, align 8, !tbaa !123
  store ptr %1, ptr %5, align 8, !tbaa !60
  %6 = load ptr, ptr %5, align 8, !tbaa !60
  %7 = call noundef i32 @_ZNK6icu_7713UnicodeString6lengthEv(ptr noundef nonnull align 8 dereferenceable(64) %6)
  %8 = icmp eq i32 %7, 1
  br i1 %8, label %9, label %34

9:                                                ; preds = %2
  %10 = load ptr, ptr %5, align 8, !tbaa !60
  %11 = call noundef zeroext i16 @_ZNK6icu_7713UnicodeStringixEi(ptr noundef nonnull align 8 dereferenceable(64) %10, i32 noundef 0)
  %12 = zext i16 %11 to i32
  %13 = icmp eq i32 %12, 104
  br i1 %13, label %14, label %15

14:                                               ; preds = %9
  store i32 0, ptr %3, align 4
  br label %107

15:                                               ; preds = %9
  %16 = load ptr, ptr %5, align 8, !tbaa !60
  %17 = call noundef zeroext i16 @_ZNK6icu_7713UnicodeStringixEi(ptr noundef nonnull align 8 dereferenceable(64) %16, i32 noundef 0)
  %18 = zext i16 %17 to i32
  %19 = icmp eq i32 %18, 72
  br i1 %19, label %20, label %21

20:                                               ; preds = %15
  store i32 1, ptr %3, align 4
  br label %107

21:                                               ; preds = %15
  %22 = load ptr, ptr %5, align 8, !tbaa !60
  %23 = call noundef zeroext i16 @_ZNK6icu_7713UnicodeStringixEi(ptr noundef nonnull align 8 dereferenceable(64) %22, i32 noundef 0)
  %24 = zext i16 %23 to i32
  %25 = icmp eq i32 %24, 75
  br i1 %25, label %26, label %27

26:                                               ; preds = %21
  store i32 2, ptr %3, align 4
  br label %107

27:                                               ; preds = %21
  %28 = load ptr, ptr %5, align 8, !tbaa !60
  %29 = call noundef zeroext i16 @_ZNK6icu_7713UnicodeStringixEi(ptr noundef nonnull align 8 dereferenceable(64) %28, i32 noundef 0)
  %30 = zext i16 %29 to i32
  %31 = icmp eq i32 %30, 107
  br i1 %31, label %32, label %33

32:                                               ; preds = %27
  store i32 3, ptr %3, align 4
  br label %107

33:                                               ; preds = %27
  br label %106

34:                                               ; preds = %2
  %35 = load ptr, ptr %5, align 8, !tbaa !60
  %36 = call noundef i32 @_ZNK6icu_7713UnicodeString6lengthEv(ptr noundef nonnull align 8 dereferenceable(64) %35)
  %37 = icmp eq i32 %36, 2
  br i1 %37, label %38, label %105

38:                                               ; preds = %34
  %39 = load ptr, ptr %5, align 8, !tbaa !60
  %40 = call noundef zeroext i16 @_ZNK6icu_7713UnicodeStringixEi(ptr noundef nonnull align 8 dereferenceable(64) %39, i32 noundef 0)
  %41 = zext i16 %40 to i32
  %42 = icmp eq i32 %41, 104
  br i1 %42, label %43, label %49

43:                                               ; preds = %38
  %44 = load ptr, ptr %5, align 8, !tbaa !60
  %45 = call noundef zeroext i16 @_ZNK6icu_7713UnicodeStringixEi(ptr noundef nonnull align 8 dereferenceable(64) %44, i32 noundef 1)
  %46 = zext i16 %45 to i32
  %47 = icmp eq i32 %46, 98
  br i1 %47, label %48, label %49

48:                                               ; preds = %43
  store i32 4, ptr %3, align 4
  br label %107

49:                                               ; preds = %43, %38
  %50 = load ptr, ptr %5, align 8, !tbaa !60
  %51 = call noundef zeroext i16 @_ZNK6icu_7713UnicodeStringixEi(ptr noundef nonnull align 8 dereferenceable(64) %50, i32 noundef 0)
  %52 = zext i16 %51 to i32
  %53 = icmp eq i32 %52, 104
  br i1 %53, label %54, label %60

54:                                               ; preds = %49
  %55 = load ptr, ptr %5, align 8, !tbaa !60
  %56 = call noundef zeroext i16 @_ZNK6icu_7713UnicodeStringixEi(ptr noundef nonnull align 8 dereferenceable(64) %55, i32 noundef 1)
  %57 = zext i16 %56 to i32
  %58 = icmp eq i32 %57, 66
  br i1 %58, label %59, label %60

59:                                               ; preds = %54
  store i32 5, ptr %3, align 4
  br label %107

60:                                               ; preds = %54, %49
  %61 = load ptr, ptr %5, align 8, !tbaa !60
  %62 = call noundef zeroext i16 @_ZNK6icu_7713UnicodeStringixEi(ptr noundef nonnull align 8 dereferenceable(64) %61, i32 noundef 0)
  %63 = zext i16 %62 to i32
  %64 = icmp eq i32 %63, 75
  br i1 %64, label %65, label %71

65:                                               ; preds = %60
  %66 = load ptr, ptr %5, align 8, !tbaa !60
  %67 = call noundef zeroext i16 @_ZNK6icu_7713UnicodeStringixEi(ptr noundef nonnull align 8 dereferenceable(64) %66, i32 noundef 1)
  %68 = zext i16 %67 to i32
  %69 = icmp eq i32 %68, 98
  br i1 %69, label %70, label %71

70:                                               ; preds = %65
  store i32 6, ptr %3, align 4
  br label %107

71:                                               ; preds = %65, %60
  %72 = load ptr, ptr %5, align 8, !tbaa !60
  %73 = call noundef zeroext i16 @_ZNK6icu_7713UnicodeStringixEi(ptr noundef nonnull align 8 dereferenceable(64) %72, i32 noundef 0)
  %74 = zext i16 %73 to i32
  %75 = icmp eq i32 %74, 75
  br i1 %75, label %76, label %82

76:                                               ; preds = %71
  %77 = load ptr, ptr %5, align 8, !tbaa !60
  %78 = call noundef zeroext i16 @_ZNK6icu_7713UnicodeStringixEi(ptr noundef nonnull align 8 dereferenceable(64) %77, i32 noundef 1)
  %79 = zext i16 %78 to i32
  %80 = icmp eq i32 %79, 66
  br i1 %80, label %81, label %82

81:                                               ; preds = %76
  store i32 7, ptr %3, align 4
  br label %107

82:                                               ; preds = %76, %71
  %83 = load ptr, ptr %5, align 8, !tbaa !60
  %84 = call noundef zeroext i16 @_ZNK6icu_7713UnicodeStringixEi(ptr noundef nonnull align 8 dereferenceable(64) %83, i32 noundef 0)
  %85 = zext i16 %84 to i32
  %86 = icmp eq i32 %85, 72
  br i1 %86, label %87, label %93

87:                                               ; preds = %82
  %88 = load ptr, ptr %5, align 8, !tbaa !60
  %89 = call noundef zeroext i16 @_ZNK6icu_7713UnicodeStringixEi(ptr noundef nonnull align 8 dereferenceable(64) %88, i32 noundef 1)
  %90 = zext i16 %89 to i32
  %91 = icmp eq i32 %90, 98
  br i1 %91, label %92, label %93

92:                                               ; preds = %87
  store i32 8, ptr %3, align 4
  br label %107

93:                                               ; preds = %87, %82
  %94 = load ptr, ptr %5, align 8, !tbaa !60
  %95 = call noundef zeroext i16 @_ZNK6icu_7713UnicodeStringixEi(ptr noundef nonnull align 8 dereferenceable(64) %94, i32 noundef 0)
  %96 = zext i16 %95 to i32
  %97 = icmp eq i32 %96, 72
  br i1 %97, label %98, label %104

98:                                               ; preds = %93
  %99 = load ptr, ptr %5, align 8, !tbaa !60
  %100 = call noundef zeroext i16 @_ZNK6icu_7713UnicodeStringixEi(ptr noundef nonnull align 8 dereferenceable(64) %99, i32 noundef 1)
  %101 = zext i16 %100 to i32
  %102 = icmp eq i32 %101, 66
  br i1 %102, label %103, label %104

103:                                              ; preds = %98
  store i32 9, ptr %3, align 4
  br label %107

104:                                              ; preds = %98, %93
  br label %105

105:                                              ; preds = %104, %34
  br label %106

106:                                              ; preds = %105, %33
  store i32 -1, ptr %3, align 4
  br label %107

107:                                              ; preds = %106, %103, %92, %81, %70, %59, %48, %32, %26, %20, %14
  %108 = load i32, ptr %3, align 4
  ret i32 %108
}