; Function Attrs: mustprogress nofree norecurse nosync nounwind willreturn memory(read, inaccessiblemem: none) uwtable
define internal fastcc noundef range(i32 -1, 10) i32 @_ZN6icu_7712_GLOBAL__N_122AllowedHourFormatsSink30getHourFormatFromUnicodeStringERKNS_13UnicodeStringE(ptr noundef nonnull readonly align 8 captures(none) dereferenceable(64) %0) unnamed_addr #17 align 2 {
  %2 = getelementptr inbounds nuw i8, ptr %0, i64 8
  %3 = load i16, ptr %2, align 8, !tbaa !17
  %4 = icmp slt i16 %3, 0
  %5 = ashr i16 %3, 5
  %6 = sext i16 %5 to i32
  %7 = getelementptr inbounds nuw i8, ptr %0, i64 12
  %8 = load i32, ptr %7, align 4
  %9 = select i1 %4, i32 %8, i32 %6
  switch i32 %9, label %_ZNK6icu_7713UnicodeStringixEi.exit62.thread [
    i32 1, label %_ZNK6icu_7713UnicodeStringixEi.exit
    i32 2, label %_ZNK6icu_7713UnicodeStringixEi.exit29
  ]

_ZNK6icu_7713UnicodeStringixEi.exit:              ; preds = %1
  %10 = and i16 %3, 2
  %.not.i.i.i = icmp eq i16 %10, 0
  %11 = getelementptr inbounds nuw i8, ptr %0, i64 10
  %12 = getelementptr inbounds nuw i8, ptr %0, i64 24
  %13 = load ptr, ptr %12, align 8
  %14 = select i1 %.not.i.i.i, ptr %13, ptr %11
  %15 = load i16, ptr %14, align 2, !tbaa !79
  switch i16 %15, label %_ZNK6icu_7713UnicodeStringixEi.exit62.thread [
    i16 104, label %40
    i16 72, label %.fold.split
    i16 75, label %.fold.split8
    i16 107, label %.fold.split9
  ]

_ZNK6icu_7713UnicodeStringixEi.exit29:            ; preds = %1
  %16 = and i16 %3, 2
  %.not.i.i.i28 = icmp eq i16 %16, 0
  %17 = getelementptr inbounds nuw i8, ptr %0, i64 10
  %18 = getelementptr inbounds nuw i8, ptr %0, i64 24
  %19 = load ptr, ptr %18, align 8
  %20 = select i1 %.not.i.i.i28, ptr %19, ptr %17
  %21 = load i16, ptr %20, align 2, !tbaa !79
  switch i16 %21, label %_ZNK6icu_7713UnicodeStringixEi.exit62.thread [
    i16 104, label %_ZNK6icu_7713UnicodeStringixEi.exit32
    i16 75, label %_ZNK6icu_7713UnicodeStringixEi.exit44
    i16 72, label %_ZNK6icu_7713UnicodeStringixEi.exit56
  ]

_ZNK6icu_7713UnicodeStringixEi.exit32:            ; preds = %_ZNK6icu_7713UnicodeStringixEi.exit29
  %22 = getelementptr inbounds nuw i8, ptr %20, i64 2
  %23 = load i16, ptr %22, align 2, !tbaa !79
  %24 = icmp eq i16 %23, 98
  br i1 %24, label %40, label %_ZNK6icu_7713UnicodeStringixEi.exit38

_ZNK6icu_7713UnicodeStringixEi.exit38:            ; preds = %_ZNK6icu_7713UnicodeStringixEi.exit32
  %25 = getelementptr inbounds nuw i8, ptr %20, i64 2
  %26 = load i16, ptr %25, align 2, !tbaa !79
  %27 = icmp eq i16 %26, 66
  br i1 %27, label %40, label %_ZNK6icu_7713UnicodeStringixEi.exit62.thread

_ZNK6icu_7713UnicodeStringixEi.exit44:            ; preds = %_ZNK6icu_7713UnicodeStringixEi.exit29
  %28 = getelementptr inbounds nuw i8, ptr %20, i64 2
  %29 = load i16, ptr %28, align 2, !tbaa !79
  %30 = icmp eq i16 %29, 98
  br i1 %30, label %40, label %_ZNK6icu_7713UnicodeStringixEi.exit50

_ZNK6icu_7713UnicodeStringixEi.exit50:            ; preds = %_ZNK6icu_7713UnicodeStringixEi.exit44
  %31 = getelementptr inbounds nuw i8, ptr %20, i64 2
  %32 = load i16, ptr %31, align 2, !tbaa !79
  %33 = icmp eq i16 %32, 66
  br i1 %33, label %40, label %_ZNK6icu_7713UnicodeStringixEi.exit62.thread

_ZNK6icu_7713UnicodeStringixEi.exit56:            ; preds = %_ZNK6icu_7713UnicodeStringixEi.exit29
  %34 = getelementptr inbounds nuw i8, ptr %20, i64 2
  %35 = load i16, ptr %34, align 2, !tbaa !79
  %36 = icmp eq i16 %35, 98
  br i1 %36, label %40, label %_ZNK6icu_7713UnicodeStringixEi.exit62

_ZNK6icu_7713UnicodeStringixEi.exit62:            ; preds = %_ZNK6icu_7713UnicodeStringixEi.exit56
  %37 = getelementptr inbounds nuw i8, ptr %20, i64 2
  %38 = load i16, ptr %37, align 2, !tbaa !79
  %39 = icmp eq i16 %38, 66
  br i1 %39, label %40, label %_ZNK6icu_7713UnicodeStringixEi.exit62.thread

_ZNK6icu_7713UnicodeStringixEi.exit62.thread:     ; preds = %_ZNK6icu_7713UnicodeStringixEi.exit29, %_ZNK6icu_7713UnicodeStringixEi.exit, %_ZNK6icu_7713UnicodeStringixEi.exit50, %_ZNK6icu_7713UnicodeStringixEi.exit38, %1, %_ZNK6icu_7713UnicodeStringixEi.exit62
  br label %40

.fold.split:                                      ; preds = %_ZNK6icu_7713UnicodeStringixEi.exit
  br label %40

.fold.split8:                                     ; preds = %_ZNK6icu_7713UnicodeStringixEi.exit
  br label %40

.fold.split9:                                     ; preds = %_ZNK6icu_7713UnicodeStringixEi.exit
  br label %40

40:                                               ; preds = %_ZNK6icu_7713UnicodeStringixEi.exit, %.fold.split9, %.fold.split8, %.fold.split, %_ZNK6icu_7713UnicodeStringixEi.exit62, %_ZNK6icu_7713UnicodeStringixEi.exit56, %_ZNK6icu_7713UnicodeStringixEi.exit50, %_ZNK6icu_7713UnicodeStringixEi.exit44, %_ZNK6icu_7713UnicodeStringixEi.exit38, %_ZNK6icu_7713UnicodeStringixEi.exit32, %_ZNK6icu_7713UnicodeStringixEi.exit62.thread
  %.0 = phi i32 [ -1, %_ZNK6icu_7713UnicodeStringixEi.exit62.thread ], [ 0, %_ZNK6icu_7713UnicodeStringixEi.exit ], [ 4, %_ZNK6icu_7713UnicodeStringixEi.exit32 ], [ 5, %_ZNK6icu_7713UnicodeStringixEi.exit38 ], [ 6, %_ZNK6icu_7713UnicodeStringixEi.exit44 ], [ 7, %_ZNK6icu_7713UnicodeStringixEi.exit50 ], [ 8, %_ZNK6icu_7713UnicodeStringixEi.exit56 ], [ 9, %_ZNK6icu_7713UnicodeStringixEi.exit62 ], [ 1, %.fold.split ], [ 2, %.fold.split8 ], [ 3, %.fold.split9 ]
  ret i32 %.0
}